target datalayout = "e-m:e-p270:32:32-p271:32:32-p272:64:64-i64:64-i128:128-f80:128-n8:16:32:64-S128"
target triple = "x86_64-pc-linux-gnu"

; Function Attrs: nounwind sspstrong uwtable
define internal void @bary_mul_toom3_branch(ptr noundef %0, i64 noundef %1, ptr noundef %2, i64 noundef %3, ptr noundef %4, i64 noundef %5, ptr noundef %6, i64 noundef %7) #0 {
  %9 = alloca ptr, align 8
  %10 = alloca i64, align 8
  %11 = alloca ptr, align 8
  %12 = alloca i64, align 8
  %13 = alloca ptr, align 8
  %14 = alloca i64, align 8
  %15 = alloca ptr, align 8
  %16 = alloca i64, align 8
  store ptr %0, ptr %9, align 8, !tbaa !24
  store i64 %1, ptr %10, align 8, !tbaa !7
  store ptr %2, ptr %11, align 8, !tbaa !24
  store i64 %3, ptr %12, align 8, !tbaa !7
  store ptr %4, ptr %13, align 8, !tbaa !24
  store i64 %5, ptr %14, align 8, !tbaa !7
  store ptr %6, ptr %15, align 8, !tbaa !24
  store i64 %7, ptr %16, align 8, !tbaa !7
  %17 = load i64, ptr %12, align 8, !tbaa !7
  %18 = icmp ult i64 %17, 150
  br i1 %18, label %19, label %28

19:                                               ; preds = %8
  %20 = load ptr, ptr %9, align 8, !tbaa !24
  %21 = load i64, ptr %10, align 8, !tbaa !7
  %22 = load ptr, ptr %11, align 8, !tbaa !24
  %23 = load i64, ptr %12, align 8, !tbaa !7
  %24 = load ptr, ptr %13, align 8, !tbaa !24
  %25 = load i64, ptr %14, align 8, !tbaa !7
  %26 = load ptr, ptr %15, align 8, !tbaa !24
  %27 = load i64, ptr %16, align 8, !tbaa !7
  call void @bary_mul_karatsuba_branch(ptr noundef %20, i64 noundef %21, ptr noundef %22, i64 noundef %23, ptr noundef %24, i64 noundef %25, ptr noundef %26, i64 noundef %27)
  br label %53

28:                                               ; preds = %8
  %29 = load i64, ptr %14, align 8, !tbaa !7
  %30 = add i64 %29, 2
  %31 = udiv i64 %30, 3
  %32 = mul i64 %31, 2
  %33 = load i64, ptr %12, align 8, !tbaa !7
  %34 = icmp ult i64 %32, %33
  br i1 %34, label %44, label %35

35:                                               ; preds = %28
  %36 = load ptr, ptr %9, align 8, !tbaa !24
  %37 = load i64, ptr %10, align 8, !tbaa !7
  %38 = load ptr, ptr %11, align 8, !tbaa !24
  %39 = load i64, ptr %12, align 8, !tbaa !7
  %40 = load ptr, ptr %13, align 8, !tbaa !24
  %41 = load i64, ptr %14, align 8, !tbaa !7
  %42 = load ptr, ptr %15, align 8, !tbaa !24
  %43 = load i64, ptr %16, align 8, !tbaa !7
  call void @bary_mul_balance_with_mulfunc(ptr noundef %36, i64 noundef %37, ptr noundef %38, i64 noundef %39, ptr noundef %40, i64 noundef %41, ptr noundef %42, i64 noundef %43, ptr noundef @bary_mul_toom3_start)
  br label %53

44:                                               ; preds = %28
  %45 = load ptr, ptr %9, align 8, !tbaa !24
  %46 = load i64, ptr %10, align 8, !tbaa !7
  %47 = load ptr, ptr %11, align 8, !tbaa !24
  %48 = load i64, ptr %12, align 8, !tbaa !7
  %49 = load ptr, ptr %13, align 8, !tbaa !24
  %50 = load i64, ptr %14, align 8, !tbaa !7
  %51 = load ptr, ptr %15, align 8, !tbaa !24
  %52 = load i64, ptr %16, align 8, !tbaa !7
  call void @bary_mul_toom3(ptr noundef %45, i64 noundef %46, ptr noundef %47, i64 noundef %48, ptr noundef %49, i64 noundef %50, ptr noundef %51, i64 noundef %52)
  br label %53

53:                                               ; preds = %44, %35, %19
  ret void
}

; Function Attrs: nounwind sspstrong uwtable
define internal void @bary_mul_toom3_start(ptr noundef %0, i64 noundef %1, ptr noundef %2, i64 noundef %3, ptr noundef %4, i64 noundef %5, ptr noundef %6, i64 noundef %7) #0 {
  %9 = alloca ptr, align 8
  %10 = alloca i64, align 8
  %11 = alloca ptr, align 8
  %12 = alloca i64, align 8
  %13 = alloca ptr, align 8
  %14 = alloca i64, align 8
  %15 = alloca ptr, align 8
  %16 = alloca i64, align 8
  store ptr %0, ptr %9, align 8, !tbaa !24
  store i64 %1, ptr %10, align 8, !tbaa !7
  store ptr %2, ptr %11, align 8, !tbaa !24
  store i64 %3, ptr %12, align 8, !tbaa !7
  store ptr %4, ptr %13, align 8, !tbaa !24
  store i64 %5, ptr %14, align 8, !tbaa !7
  store ptr %6, ptr %15, align 8, !tbaa !24
  store i64 %7, ptr %16, align 8, !tbaa !7
  %17 = call i32 @bary_mul_precheck(ptr noundef %9, ptr noundef %10, ptr noundef %11, ptr noundef %12, ptr noundef %13, ptr noundef %14)
  %18 = icmp ne i32 %17, 0
  br i1 %18, label %19, label %20

19:                                               ; preds = %8
  br label %29

20:                                               ; preds = %8
  %21 = load ptr, ptr %9, align 8, !tbaa !24
  %22 = load i64, ptr %10, align 8, !tbaa !7
  %23 = load ptr, ptr %11, align 8, !tbaa !24
  %24 = load i64, ptr %12, align 8, !tbaa !7
  %25 = load ptr, ptr %13, align 8, !tbaa !24
  %26 = load i64, ptr %14, align 8, !tbaa !7
  %27 = load ptr, ptr %15, align 8, !tbaa !24
  %28 = load i64, ptr %16, align 8, !tbaa !7
  call void @bary_mul_toom3_branch(ptr noundef %21, i64 noundef %22, ptr noundef %23, i64 noundef %24, ptr noundef %25, i64 noundef %26, ptr noundef %27, i64 noundef %28)
  br label %29

29:                                               ; preds = %20, %19
  ret void
}