; Function Attrs: nounwind sspstrong uwtable
define internal void @bary_mul_toom3_start(ptr noundef %0, i64 noundef %1, ptr noundef %2, i64 noundef %3, ptr noundef %4, i64 noundef %5, ptr noundef %6, i64 noundef %7) #0 {
  %9 = alloca ptr, align 8
  %10 = alloca i64, align 8
  %11 = alloca ptr, align 8
  %12 = alloca i64, align 8
  %13 = alloca ptr, align 8
  %14 = alloca i64, align 8
  store ptr %0, ptr %9, align 8, !tbaa !40
  store i64 %1, ptr %10, align 8, !tbaa !7
  store ptr %2, ptr %11, align 8, !tbaa !40
  store i64 %3, ptr %12, align 8, !tbaa !7
  store ptr %4, ptr %13, align 8, !tbaa !40
  store i64 %5, ptr %14, align 8, !tbaa !7
  %15 = call fastcc i32 @bary_mul_precheck(ptr noundef %9, ptr noundef %10, ptr noundef %11, ptr noundef %12, ptr noundef %13, ptr noundef %14)
  %.not = icmp eq i32 %15, 0
  br i1 %.not, label %16, label %bary_mul_toom3_branch.exit

16:                                               ; preds = %8
  %17 = load ptr, ptr %9, align 8, !tbaa !40
  %18 = load i64, ptr %10, align 8, !tbaa !7
  %19 = load ptr, ptr %11, align 8, !tbaa !40
  %20 = load i64, ptr %12, align 8, !tbaa !7
  %21 = load ptr, ptr %13, align 8, !tbaa !40
  %22 = load i64, ptr %14, align 8, !tbaa !7
  %23 = icmp ult i64 %20, 150
  br i1 %23, label %24, label %25

24:                                               ; preds = %16
  tail call fastcc void @bary_mul_karatsuba_branch(ptr noundef %17, i64 noundef %18, ptr noundef %19, i64 noundef %20, ptr noundef %21, i64 noundef %22, ptr noundef %6, i64 noundef %7)
  br label %bary_mul_toom3_branch.exit

25:                                               ; preds = %16
  %26 = add i64 %22, 2
  %27 = udiv i64 %26, 3
  %28 = shl nuw i64 %27, 1
  %29 = icmp ult i64 %28, %20
  br i1 %29, label %31, label %30

30:                                               ; preds = %25
  tail call fastcc void @bary_mul_balance_with_mulfunc(ptr noundef %17, i64 noundef %18, ptr noundef %19, i64 noundef %20, ptr noundef %21, i64 noundef %22, ptr noundef %6, i64 noundef %7, ptr noundef nonnull @bary_mul_toom3_start)
  br label %bary_mul_toom3_branch.exit

31:                                               ; preds = %25
  tail call fastcc void @bary_mul_toom3(ptr noundef %17, i64 noundef %18, ptr noundef %19, i64 noundef %20, ptr noundef %21, i64 noundef %22, ptr noundef %6, i64 noundef %7)
  br label %bary_mul_toom3_branch.exit

bary_mul_toom3_branch.exit:                       ; preds = %31, %30, %24, %8
  ret void
}